; Function Attrs: mustprogress nofree norecurse nosync nounwind willreturn memory(read, inaccessiblemem: none) uwtable
define internal noundef range(i32 -1, 65536) i32 @_ZL22utf16BEIteratorCurrentP13UCharIterator(ptr noundef readonly captures(none) %0) #8 {
  %2 = getelementptr inbounds nuw i8, ptr %0, i64 16
  %3 = load i32, ptr %2, align 8, !tbaa !28
  %4 = getelementptr inbounds nuw i8, ptr %0, i64 20
  %5 = load i32, ptr %4, align 4, !tbaa !13
  %6 = icmp slt i32 %3, %5
  br i1 %6, label %7, label %20

7:                                                ; preds = %1
  %.val = load ptr, ptr %0, align 8, !tbaa !10
  %8 = shl nsw i32 %3, 1
  %9 = sext i32 %8 to i64
  %10 = getelementptr inbounds i8, ptr %.val, i64 %9
  %11 = load i8, ptr %10, align 1, !tbaa !14
  %12 = zext i8 %11 to i32
  %13 = shl nuw nsw i32 %12, 8
  %14 = or disjoint i32 %8, 1
  %15 = sext i32 %14 to i64
  %16 = getelementptr inbounds i8, ptr %.val, i64 %15
  %17 = load i8, ptr %16, align 1, !tbaa !14
  %18 = zext i8 %17 to i32
  %19 = or disjoint i32 %13, %18
  br label %20

20:                                               ; preds = %1, %7
  %.0 = phi i32 [ %19, %7 ], [ -1, %1 ]
  ret i32 %.0
}